target datalayout = "e-m:e-p270:32:32-p271:32:32-p272:64:64-i64:64-i128:128-f80:128-n8:16:32:64-S128"
target triple = "x86_64-pc-linux-gnu"

%struct.CBuf = type { ptr, i64 }
%struct.ISzAlloc = type { ptr, ptr }
%struct.CSzAr = type { ptr, ptr, ptr, ptr, ptr, i32, i32, i32 }
%struct.CSzArEx = type { %struct.CSzAr, i64, i64, ptr, ptr, ptr, ptr, ptr, %struct.CBuf }

; Function Attrs: nounwind uwtable
define void @SzAr_Init(ptr noundef %0) #0 {
  %2 = alloca ptr, align 8
  store ptr %0, ptr %2, align 8
  %3 = load ptr, ptr %2, align 8
  %4 = getelementptr inbounds %struct.CSzAr, ptr %3, i32 0, i32 0
  store ptr null, ptr %4, align 8
  %5 = load ptr, ptr %2, align 8
  %6 = getelementptr inbounds %struct.CSzAr, ptr %5, i32 0, i32 1
  store ptr null, ptr %6, align 8
  %7 = load ptr, ptr %2, align 8
  %8 = getelementptr inbounds %struct.CSzAr, ptr %7, i32 0, i32 2
  store ptr null, ptr %8, align 8
  %9 = load ptr, ptr %2, align 8
  %10 = getelementptr inbounds %struct.CSzAr, ptr %9, i32 0, i32 3
  store ptr null, ptr %10, align 8
  %11 = load ptr, ptr %2, align 8
  %12 = getelementptr inbounds %struct.CSzAr, ptr %11, i32 0, i32 4
  store ptr null, ptr %12, align 8
  %13 = load ptr, ptr %2, align 8
  %14 = getelementptr inbounds %struct.CSzAr, ptr %13, i32 0, i32 5
  store i32 0, ptr %14, align 8
  %15 = load ptr, ptr %2, align 8
  %16 = getelementptr inbounds %struct.CSzAr, ptr %15, i32 0, i32 6
  store i32 0, ptr %16, align 4
  %17 = load ptr, ptr %2, align 8
  %18 = getelementptr inbounds %struct.CSzAr, ptr %17, i32 0, i32 7
  store i32 0, ptr %18, align 8
  ret void
}

; Function Attrs: nounwind uwtable
define void @SzArEx_Init(ptr noundef %0) #0 {
  %2 = alloca ptr, align 8
  store ptr %0, ptr %2, align 8
  %3 = load ptr, ptr %2, align 8
  %4 = getelementptr inbounds %struct.CSzArEx, ptr %3, i32 0, i32 0
  call void @SzAr_Init(ptr noundef %4)
  %5 = load ptr, ptr %2, align 8
  %6 = getelementptr inbounds %struct.CSzArEx, ptr %5, i32 0, i32 3
  store ptr null, ptr %6, align 8
  %7 = load ptr, ptr %2, align 8
  %8 = getelementptr inbounds %struct.CSzArEx, ptr %7, i32 0, i32 4
  store ptr null, ptr %8, align 8
  %9 = load ptr, ptr %2, align 8
  %10 = getelementptr inbounds %struct.CSzArEx, ptr %9, i32 0, i32 5
  store ptr null, ptr %10, align 8
  %11 = load ptr, ptr %2, align 8
  %12 = getelementptr inbounds %struct.CSzArEx, ptr %11, i32 0, i32 6
  store ptr null, ptr %12, align 8
  %13 = load ptr, ptr %2, align 8
  %14 = getelementptr inbounds %struct.CSzArEx, ptr %13, i32 0, i32 7
  store ptr null, ptr %14, align 8
  %15 = load ptr, ptr %2, align 8
  %16 = getelementptr inbounds %struct.CSzArEx, ptr %15, i32 0, i32 8
  call void @Buf_Init(ptr noundef %16)
  ret void
}

; Function Attrs: nounwind uwtable
define void @SzArEx_Free(ptr noundef %0, ptr noundef %1) #0 {
  %3 = alloca ptr, align 8
  %4 = alloca ptr, align 8
  store ptr %0, ptr %3, align 8
  store ptr %1, ptr %4, align 8
  %5 = load ptr, ptr %4, align 8
  %6 = getelementptr inbounds %struct.ISzAlloc, ptr %5, i32 0, i32 1
  %7 = load ptr, ptr %6, align 8
  %8 = load ptr, ptr %4, align 8
  %9 = load ptr, ptr %3, align 8
  %10 = getelementptr inbounds %struct.CSzArEx, ptr %9, i32 0, i32 3
  %11 = load ptr, ptr %10, align 8
  call void %7(ptr noundef %8, ptr noundef %11)
  %12 = load ptr, ptr %4, align 8
  %13 = getelementptr inbounds %struct.ISzAlloc, ptr %12, i32 0, i32 1
  %14 = load ptr, ptr %13, align 8
  %15 = load ptr, ptr %4, align 8
  %16 = load ptr, ptr %3, align 8
  %17 = getelementptr inbounds %struct.CSzArEx, ptr %16, i32 0, i32 4
  %18 = load ptr, ptr %17, align 8
  call void %14(ptr noundef %15, ptr noundef %18)
  %19 = load ptr, ptr %4, align 8
  %20 = getelementptr inbounds %struct.ISzAlloc, ptr %19, i32 0, i32 1
  %21 = load ptr, ptr %20, align 8
  %22 = load ptr, ptr %4, align 8
  %23 = load ptr, ptr %3, align 8
  %24 = getelementptr inbounds %struct.CSzArEx, ptr %23, i32 0, i32 5
  %25 = load ptr, ptr %24, align 8
  call void %21(ptr noundef %22, ptr noundef %25)
  %26 = load ptr, ptr %4, align 8
  %27 = getelementptr inbounds %struct.ISzAlloc, ptr %26, i32 0, i32 1
  %28 = load ptr, ptr %27, align 8
  %29 = load ptr, ptr %4, align 8
  %30 = load ptr, ptr %3, align 8
  %31 = getelementptr inbounds %struct.CSzArEx, ptr %30, i32 0, i32 6
  %32 = load ptr, ptr %31, align 8
  call void %28(ptr noundef %29, ptr noundef %32)
  %33 = load ptr, ptr %4, align 8
  %34 = getelementptr inbounds %struct.ISzAlloc, ptr %33, i32 0, i32 1
  %35 = load ptr, ptr %34, align 8
  %36 = load ptr, ptr %4, align 8
  %37 = load ptr, ptr %3, align 8
  %38 = getelementptr inbounds %struct.CSzArEx, ptr %37, i32 0, i32 7
  %39 = load ptr, ptr %38, align 8
  call void %35(ptr noundef %36, ptr noundef %39)
  %40 = load ptr, ptr %3, align 8
  %41 = getelementptr inbounds %struct.CSzArEx, ptr %40, i32 0, i32 8
  %42 = load ptr, ptr %4, align 8
  call void @Buf_Free(ptr noundef %41, ptr noundef %42)
  %43 = load ptr, ptr %3, align 8
  %44 = getelementptr inbounds %struct.CSzArEx, ptr %43, i32 0, i32 0
  %45 = load ptr, ptr %4, align 8
  call void @SzAr_Free(ptr noundef %44, ptr noundef %45)
  %46 = load ptr, ptr %3, align 8
  call void @SzArEx_Init(ptr noundef %46)
  ret void
}