; Function Attrs: nounwind uwtable
define void @SzArEx_Free(ptr noundef %0, ptr noundef %1) local_unnamed_addr #0 {
  %3 = getelementptr inbounds nuw i8, ptr %1, i64 8
  %4 = load ptr, ptr %3, align 8
  %5 = getelementptr inbounds nuw i8, ptr %0, i64 72
  %6 = load ptr, ptr %5, align 8
  tail call void %4(ptr noundef %1, ptr noundef %6) #11
  %7 = load ptr, ptr %3, align 8
  %8 = getelementptr inbounds nuw i8, ptr %0, i64 80
  %9 = load ptr, ptr %8, align 8
  tail call void %7(ptr noundef %1, ptr noundef %9) #11
  %10 = load ptr, ptr %3, align 8
  %11 = getelementptr inbounds nuw i8, ptr %0, i64 88
  %12 = load ptr, ptr %11, align 8
  tail call void %10(ptr noundef %1, ptr noundef %12) #11
  %13 = load ptr, ptr %3, align 8
  %14 = getelementptr inbounds nuw i8, ptr %0, i64 96
  %15 = load ptr, ptr %14, align 8
  tail call void %13(ptr noundef %1, ptr noundef %15) #11
  %16 = load ptr, ptr %3, align 8
  %17 = getelementptr inbounds nuw i8, ptr %0, i64 104
  %18 = load ptr, ptr %17, align 8
  tail call void %16(ptr noundef %1, ptr noundef %18) #11
  %19 = getelementptr inbounds nuw i8, ptr %0, i64 112
  tail call void @Buf_Free(ptr noundef nonnull %19, ptr noundef %1) #11
  tail call void @SzAr_Free(ptr noundef %0, ptr noundef %1)
  tail call void @llvm.memset.p0.i64(ptr noundef nonnull align 8 dereferenceable(52) %0, i8 0, i64 52, i1 false)
  tail call void @llvm.memset.p0.i64(ptr noundef nonnull align 8 dereferenceable(40) %5, i8 0, i64 40, i1 false)
  tail call void @Buf_Init(ptr noundef nonnull %19) #11
  ret void
}